; Function Attrs: nofree norecurse nosync nounwind memory(read, inaccessiblemem: none) uwtable
define range(i32 -2147483648, 2147483647) i32 @Pdr_ManFindInvariantStart(ptr noundef readonly captures(none) %0) local_unnamed_addr #4 {
  %2 = getelementptr inbounds nuw i8, ptr %0, i64 104
  %3 = load ptr, ptr %2, align 8
  %4 = getelementptr i8, ptr %3, i64 4
  %.val10 = load i32, ptr %4, align 4
  %5 = add nsw i32 %.val10, -1
  %6 = icmp sgt i32 %.val10, 1
  br i1 %6, label %.lr.ph, label %.critedge

.lr.ph:                                           ; preds = %1
  %7 = getelementptr inbounds nuw i8, ptr %0, i64 112
  %8 = load ptr, ptr %7, align 8
  %9 = getelementptr i8, ptr %8, i64 8
  %.val11 = load ptr, ptr %9, align 8
  %wide.trip.count = zext nneg i32 %.val10 to i64
  br label %10

10:                                               ; preds = %.lr.ph, %15
  %indvars.iv = phi i64 [ 1, %.lr.ph ], [ %indvars.iv.next, %15 ]
  %11 = getelementptr inbounds nuw ptr, ptr %.val11, i64 %indvars.iv
  %12 = load ptr, ptr %11, align 8
  %13 = getelementptr i8, ptr %12, i64 4
  %.val = load i32, ptr %13, align 4
  %14 = icmp eq i32 %.val, 0
  br i1 %14, label %.critedge.loopexit.split.loop.exit16, label %15

15:                                               ; preds = %10
  %indvars.iv.next = add nuw nsw i64 %indvars.iv, 1
  %exitcond.not = icmp eq i64 %indvars.iv.next, %wide.trip.count
  br i1 %exitcond.not, label %.critedge, label %10, !llvm.loop !12

.critedge.loopexit.split.loop.exit16:             ; preds = %10
  %16 = trunc nuw nsw i64 %indvars.iv to i32
  br label %.critedge

.critedge:                                        ; preds = %15, %.critedge.loopexit.split.loop.exit16, %1
  %.0 = phi i32 [ %5, %1 ], [ %16, %.critedge.loopexit.split.loop.exit16 ], [ %5, %15 ]
  ret i32 %.0
}